(dp0
cnumpy.core.multiarray
scalar
p1
(cnumpy
dtype
p2
(S'S3'
p3
I0
I1
tp4
Rp5
(I3
S'|'
p6
NNNI3
I1
I0
tp7
bS'601'
p8
tp9
Rp10
S'0'
p11
sg1
(g2
(S'S7'
p12
I0
I1
tp13
Rp14
(I3
S'|'
p15
NNNI7
I1
I0
tp16
bS'Unknown'
p17
tp18
Rp19
S'2'
p20
sg1
(g2
(S'S7'
p21
I0
I1
tp22
Rp23
(I3
S'|'
p24
NNNI7
I1
I0
tp25
bS'library'
p26
tp27
Rp28
S'19'
p29
sg1
(g2
(S'S9'
p30
I0
I1
tp31
Rp32
(I3
S'|'
p33
NNNI9
I1
I0
tp34
bS'5_bedroom'
p35
tp36
Rp37
S'5'
p38
sg1
(g2
(S'S4'
p39
I0
I1
tp40
Rp41
(I3
S'|'
p42
NNNI4
I1
I0
tp43
bS'hpcl'
p44
tp45
Rp46
S'20'
p47
sg1
(g2
(S'S8'
p48
I0
I1
tp49
Rp50
(I3
S'|'
p51
NNNI8
I1
I0
tp52
bS'phd_mess'
p53
tp54
Rp55
S'8'
p56
sg1
(g2
(S'S10'
p57
I0
I1
tp58
Rp59
(I3
S'|'
p60
NNNI10
I1
I0
tp61
bS'ease_door1'
p62
tp63
Rp64
S'25'
p65
sg1
(g2
(S'S9'
p66
I0
I1
tp67
Rp68
(I3
S'|'
p69
NNNI9
I1
I0
tp70
bS'8_bedroom'
p71
tp72
Rp73
S'13'
p74
sg1
(g2
(S'S4'
p75
I0
I1
tp76
Rp77
(I3
S'|'
p78
NNNI4
I1
I0
tp79
bS'club'
p80
tp81
Rp82
S'10'
p83
sg1
(g2
(S'S10'
p84
I0
I1
tp85
Rp86
(I3
S'|'
p87
NNNI10
I1
I0
tp88
bS'playground'
p89
tp90
Rp91
S'22'
p92
sg1
(g2
(S'S10'
p93
I0
I1
tp94
Rp95
(I3
S'|'
p96
NNNI10
I1
I0
tp97
bS'THbuliding'
p98
tp99
Rp100
S'7'
p101
sg1
(g2
(S'S9'
p102
I0
I1
tp103
Rp104
(I3
S'|'
p105
NNNI9
I1
I0
tp106
bS'east_door'
p107
tp108
Rp109
S'9'
p110
sg1
(g2
(S'S6'
p111
I0
I1
tp112
Rp113
(I3
S'|'
p114
NNNI6
I1
I0
tp115
bS'backYH'
p116
tp117
Rp118
S'1'
p119
sg1
(g2
(S'S3'
p120
I0
I1
tp121
Rp122
(I3
S'|'
p123
NNNI3
I1
I0
tp124
bS'gym'
p125
tp126
Rp127
S'17'
p128
sg1
(g2
(S'S10'
p129
I0
I1
tp130
Rp131
(I3
S'|'
p132
NNNI10
I1
I0
tp133
bS'north_door'
p134
tp135
Rp136
S'11'
p137
sg1
(g2
(S'S10'
p138
I0
I1
tp139
Rp140
(I3
S'|'
p141
NNNI10
I1
I0
tp142
bS'east_door1'
p143
tp144
Rp145
S'12'
p146
sg1
(g2
(S'S10'
p147
I0
I1
tp148
Rp149
(I3
S'|'
p150
NNNI10
I1
I0
tp151
bS'east_door2'
p152
tp153
Rp154
S'24'
p155
sg1
(g2
(S'S10'
p156
I0
I1
tp157
Rp158
(I3
S'|'
p159
NNNI10
I1
I0
tp160
bS'east_door3'
p161
tp162
Rp163
S'18'
p164
sg1
(g2
(S'S15'
p165
I0
I1
tp166
Rp167
(I3
S'|'
p168
NNNI15
I1
I0
tp169
bS'north_community'
p170
tp171
Rp172
S'16'
p173
sg1
(g2
(S'S3'
p174
I0
I1
tp175
Rp176
(I3
S'|'
p177
NNNI3
I1
I0
tp178
bS'102'
p179
tp180
Rp181
S'21'
p182
sg1
(g2
(S'S3'
p183
I0
I1
tp184
Rp185
(I3
S'|'
p186
NNNI3
I1
I0
tp187
bS'103'
p188
tp189
Rp190
S'4'
p191
sg1
(g2
(S'S3'
p192
I0
I1
tp193
Rp194
(I3
S'|'
p195
NNNI3
I1
I0
tp196
bS'101'
p197
tp198
Rp199
S'14'
p200
sg1
(g2
(S'S7'
p201
I0
I1
tp202
Rp203
(I3
S'|'
p204
NNNI7
I1
I0
tp205
bS'gym_101'
p206
tp207
Rp208
S'23'
p209
sg1
(g2
(S'S10'
p210
I0
I1
tp211
Rp212
(I3
S'|'
p213
NNNI10
I1
I0
tp214
bS'baskball_5'
p215
tp216
Rp217
S'6'
p218
sg1
(g2
(S'S3'
p219
I0
I1
tp220
Rp221
(I3
S'|'
p222
NNNI3
I1
I0
tp223
bS'pdl'
p224
tp225
Rp226
S'3'
p227
sg1
(g2
(S'S10'
p228
I0
I1
tp229
Rp230
(I3
S'|'
p231
NNNI10
I1
I0
tp232
bS'8_bedroom1'
p233
tp234
Rp235
S'15'
p236
s.