(dp0
cnumpy.core.multiarray
scalar
p1
(cnumpy
dtype
p2
(S'S7'
p3
I0
I1
tp4
Rp5
(I3
S'|'
p6
NNNI7
I1
I0
tp7
bS'gym_101'
p8
tp9
Rp10
I6
sg1
(g2
(S'S7'
p11
I0
I1
tp12
Rp13
(I3
S'|'
p14
NNNI7
I1
I0
tp15
bS'Unknown'
p16
tp17
Rp18
I10
sg1
(g2
(S'S10'
p19
I0
I1
tp20
Rp21
(I3
S'|'
p22
NNNI10
I1
I0
tp23
bS'east_door2'
p24
tp25
Rp26
I8
sg1
(g2
(S'S10'
p27
I0
I1
tp28
Rp29
(I3
S'|'
p30
NNNI10
I1
I0
tp31
bS'east_door3'
p32
tp33
Rp34
I7
sg1
(g2
(S'S3'
p35
I0
I1
tp36
Rp37
(I3
S'|'
p38
NNNI3
I1
I0
tp39
bS'pdl'
p40
tp41
Rp42
I2
sg1
(g2
(S'S15'
p43
I0
I1
tp44
Rp45
(I3
S'|'
p46
NNNI15
I1
I0
tp47
bS'north_community'
p48
tp49
Rp50
I9
sg1
(g2
(S'S3'
p51
I0
I1
tp52
Rp53
(I3
S'|'
p54
NNNI3
I1
I0
tp55
bS'102'
p56
tp57
Rp58
I5
sg1
(g2
(S'S3'
p59
I0
I1
tp60
Rp61
(I3
S'|'
p62
NNNI3
I1
I0
tp63
bS'103'
p64
tp65
Rp66
I1
sg1
(g2
(S'S3'
p67
I0
I1
tp68
Rp69
(I3
S'|'
p70
NNNI3
I1
I0
tp71
bS'101'
p72
tp73
Rp74
I4
sg1
(g2
(S'S10'
p75
I0
I1
tp76
Rp77
(I3
S'|'
p78
NNNI10
I1
I0
tp79
bS'baskball_5'
p80
tp81
Rp82
I3
sg1
(g2
(S'S4'
p83
I0
I1
tp84
Rp85
(I3
S'|'
p86
NNNI4
I1
I0
tp87
bS'road'
p88
tp89
Rp90
I0
s.