(dp0
cnumpy.core.multiarray
scalar
p1
(cnumpy
dtype
p2
(S'S3'
p3
I0
I1
tp4
Rp5
(I3
S'|'
p6
NNNI3
I1
I0
tp7
bS'601'
p8
tp9
Rp10
I10
sg1
(g2
(S'S7'
p11
I0
I1
tp12
Rp13
(I3
S'|'
p14
NNNI7
I1
I0
tp15
bS'Unknown'
p16
tp17
Rp18
I3
sg1
(g2
(S'S7'
p19
I0
I1
tp20
Rp21
(I3
S'|'
p22
NNNI7
I1
I0
tp23
bS'library'
p24
tp25
Rp26
I14
sg1
(g2
(S'S4'
p27
I0
I1
tp28
Rp29
(I3
S'|'
p30
NNNI4
I1
I0
tp31
bS'hpcl'
p32
tp33
Rp34
I23
sg1
(g2
(S'S9'
p35
I0
I1
tp36
Rp37
(I3
S'|'
p38
NNNI9
I1
I0
tp39
bS'5_bedroom'
p40
tp41
Rp42
I18
sg1
(g2
(S'S8'
p43
I0
I1
tp44
Rp45
(I3
S'|'
p46
NNNI8
I1
I0
tp47
bS'phd_mess'
p48
tp49
Rp50
I9
sg1
(g2
(S'S10'
p51
I0
I1
tp52
Rp53
(I3
S'|'
p54
NNNI10
I1
I0
tp55
bS'ease_door1'
p56
tp57
Rp58
I15
sg1
(g2
(S'S9'
p59
I0
I1
tp60
Rp61
(I3
S'|'
p62
NNNI9
I1
I0
tp63
bS'8_bedroom'
p64
tp65
Rp66
I0
sg1
(g2
(S'S4'
p67
I0
I1
tp68
Rp69
(I3
S'|'
p70
NNNI4
I1
I0
tp71
bS'club'
p72
tp73
Rp74
I16
sg1
(g2
(S'S10'
p75
I0
I1
tp76
Rp77
(I3
S'|'
p78
NNNI10
I1
I0
tp79
bS'playground'
p80
tp81
Rp82
I20
sg1
(g2
(S'S10'
p83
I0
I1
tp84
Rp85
(I3
S'|'
p86
NNNI10
I1
I0
tp87
bS'THbuliding'
p88
tp89
Rp90
I19
sg1
(g2
(S'S9'
p91
I0
I1
tp92
Rp93
(I3
S'|'
p94
NNNI9
I1
I0
tp95
bS'east_door'
p96
tp97
Rp98
I6
sg1
(g2
(S'S6'
p99
I0
I1
tp100
Rp101
(I3
S'|'
p102
NNNI6
I1
I0
tp103
bS'backYH'
p104
tp105
Rp106
I1
sg1
(g2
(S'S3'
p107
I0
I1
tp108
Rp109
(I3
S'|'
p110
NNNI3
I1
I0
tp111
bS'gym'
p112
tp113
Rp114
I13
sg1
(g2
(S'S10'
p115
I0
I1
tp116
Rp117
(I3
S'|'
p118
NNNI10
I1
I0
tp119
bS'north_door'
p120
tp121
Rp122
I8
sg1
(g2
(S'S10'
p123
I0
I1
tp124
Rp125
(I3
S'|'
p126
NNNI10
I1
I0
tp127
bS'east_door1'
p128
tp129
Rp130
I17
sg1
(g2
(S'S10'
p131
I0
I1
tp132
Rp133
(I3
S'|'
p134
NNNI10
I1
I0
tp135
bS'east_door2'
p136
tp137
Rp138
I5
sg1
(g2
(S'S10'
p139
I0
I1
tp140
Rp141
(I3
S'|'
p142
NNNI10
I1
I0
tp143
bS'east_door3'
p144
tp145
Rp146
I4
sg1
(g2
(S'S15'
p147
I0
I1
tp148
Rp149
(I3
S'|'
p150
NNNI15
I1
I0
tp151
bS'north_community'
p152
tp153
Rp154
I24
sg1
(g2
(S'S3'
p155
I0
I1
tp156
Rp157
(I3
S'|'
p158
NNNI3
I1
I0
tp159
bS'102'
p160
tp161
Rp162
I11
sg1
(g2
(S'S3'
p163
I0
I1
tp164
Rp165
(I3
S'|'
p166
NNNI3
I1
I0
tp167
bS'103'
p168
tp169
Rp170
I7
sg1
(g2
(S'S3'
p171
I0
I1
tp172
Rp173
(I3
S'|'
p174
NNNI3
I1
I0
tp175
bS'101'
p176
tp177
Rp178
I12
sg1
(g2
(S'S7'
p179
I0
I1
tp180
Rp181
(I3
S'|'
p182
NNNI7
I1
I0
tp183
bS'gym_101'
p184
tp185
Rp186
I22
sg1
(g2
(S'S3'
p187
I0
I1
tp188
Rp189
(I3
S'|'
p190
NNNI3
I1
I0
tp191
bS'pdl'
p192
tp193
Rp194
I2
sg1
(g2
(S'S10'
p195
I0
I1
tp196
Rp197
(I3
S'|'
p198
NNNI10
I1
I0
tp199
bS'baskball_5'
p200
tp201
Rp202
I21
s.