(dp0
I0
S'10-01-2015'
p1
sI1
S'10-02-2015'
p2
sI2
S'10-04-2015'
p3
sI3
S'10-10-2015'
p4
sI4
S'10-20-2015'
p5
sI5
S'10-21-2015'
p6
sI6
S'11-1-2015'
p7
sI7
S'11-4-2015'
p8
sI8
S'11-5-2015'
p9
sI9
S'11-6-2015'
p10
sI10
S'11-7-2015'
p11
sI11
S'11-8-2015'
p12
sI12
S'11-9-2015'
p13
sI13
S'5-20-2014'
p14
sI14
S'5-21-2014'
p15
sI15
S'5-22-2014'
p16
sI16
S'5-23-2014'
p17
sI17
S'5-24-2014'
p18
sI18
S'5-25-2014'
p19
sI19
S'5-26-2014'
p20
sI20
S'5-27-2014'
p21
sI21
S'5-28-2014'
p22
sI22
S'5-29-2014'
p23
sI23
S'5-30-2014'
p24
sI24
S'7-1-2015'
p25
sI25
S'7-10-2015'
p26
sI26
S'7-11-2015'
p27
sI27
S'7-12-2015'
p28
sI28
S'7-13-2015'
p29
sI29
S'7-14-2015'
p30
sI30
S'7-15-2015'
p31
sI31
S'7-16-2015'
p32
sI32
S'7-17-2015'
p33
sI33
S'8-28-2015'
p34
sI34
S'8-29-2015'
p35
sI35
S'8-30-2015'
p36
sI36
S'9-16-2015'
p37
sI37
S'9-17-2015'
p38
sI38
S'9-18-2015'
p39
sI39
S'9-20-2015'
p40
sI40
S'9-21-2015'
p41
sI41
S'9-22-2015'
p42
sI42
S'9-23-2015'
p43
sI43
S'9-24-2015'
p44
sI44
S'9-25-2015'
p45
sI45
S'9-26-2015'
p46
sI46
S'9-29-2015'
p47
s.